; Function Attrs: nounwind uwtable
define internal void @display_handle_description(ptr noundef captures(none) %0, ptr readnone captures(none) %1, ptr noundef %2) #0 {
  %4 = getelementptr inbounds nuw i8, ptr %0, i64 108
  %5 = load i32, ptr %4, align 4
  %6 = icmp eq i32 %5, 0
  br i1 %6, label %7, label %11

7:                                                ; preds = %3
  %8 = getelementptr inbounds nuw i8, ptr %0, i64 120
  %9 = load ptr, ptr %8, align 8
  tail call void @SDL_free_REAL(ptr noundef %9) #12
  %10 = tail call noalias ptr @SDL_strdup_REAL(ptr noundef %2) #12
  store ptr %10, ptr %8, align 8
  br label %11

11:                                               ; preds = %7, %3
  ret void
}